target datalayout = "e-m:e-p270:32:32-p271:32:32-p272:64:64-i64:64-i128:128-f80:128-n8:16:32:64-S128"
target triple = "x86_64-pc-linux-gnu"

%struct.expert_field = type { i32, i32 }

@hf_uftp_congctrl = internal global i32 0, align 4
@hf_uftp_congctrl_func = internal global i32 0, align 4
@hf_uftp_congctrl_hlen = internal global i32 0, align 4
@hf_uftp_congctrl_reserved = internal global i32 0, align 4
@hf_uftp_congctrl_cc_seq = internal global i32 0, align 4
@hf_uftp_congctrl_cc_rate = internal global i32 0, align 4
@hf_uftp_congctrl_tstamp = internal global i32 0, align 4
@hf_uftp_congctrl_cclist = internal global i32 0, align 4
@hf_uftp_congctrl_item = internal global i32 0, align 4
@hf_uftp_congctrl_item_destid = internal global i32 0, align 4
@hf_uftp_congctrl_item_flags = internal global i32 0, align 4
@hf_uftp_congctrl_item_rtt = internal global i32 0, align 4
@hf_uftp_congctrl_item_rate = internal global i32 0, align 4
@ett_uftp_congctrl = internal global i32 0, align 4
@ett_uftp_congctrl_cclist = internal global i32 0, align 4
@ett_uftp_congctrl_item = internal global i32 0, align 4
@ett_uftp_congctrl_item_flags = internal global i32 0, align 4
@ei_uftp_length_invalid = internal global %struct.expert_field zeroinitializer, align 4
@.str.427 = private unnamed_addr constant [19 x i8] c"Invalid length: %d\00", align 1
@.str.428 = private unnamed_addr constant [36 x i8] c"Invalid length, len = %d, hlen = %d\00", align 1
@.str.429 = private unnamed_addr constant [14 x i8] c"%d bytes (%d)\00", align 1
@cc_item_flags = internal constant [6 x ptr] [ptr @hf_uftp_congctrl_item_flags_clr, ptr @hf_uftp_congctrl_item_flags_rtt, ptr @hf_uftp_congctrl_item_flags_start, ptr @hf_uftp_congctrl_item_flags_leave, ptr @hf_uftp_congctrl_item_flags_reserved, ptr null], align 16

; Function Attrs: nounwind null_pointer_is_valid sspstrong uwtable
define internal double @unquantize_grtt(i8 noundef zeroext %0) #3 {
  %2 = alloca i8, align 1
  store i8 %0, ptr %2, align 1
  %3 = load i8, ptr %2, align 1
  %4 = zext i8 %3 to i32
  %5 = icmp sle i32 %4, 31
  br i1 %5, label %6, label %12

6:                                                ; preds = %1
  %7 = load i8, ptr %2, align 1
  %8 = zext i8 %7 to i32
  %9 = add i32 %8, 1
  %10 = sitofp i32 %9 to double
  %11 = fmul double %10, 0x3EB0C6F7A0B5ED8D
  br label %20

12:                                               ; preds = %1
  %13 = load i8, ptr %2, align 1
  %14 = zext i8 %13 to i32
  %15 = sub i32 255, %14
  %16 = sitofp i32 %15 to double
  %17 = fdiv double %16, 1.300000e+01
  %18 = call double @exp(double noundef %17) #5
  %19 = fdiv double 1.000000e+03, %18
  br label %20

20:                                               ; preds = %12, %6
  %21 = phi double [ %11, %6 ], [ %19, %12 ]
  ret double %21
}

; Function Attrs: nounwind null_pointer_is_valid sspstrong uwtable
define internal i32 @unquantize_rate(i16 noundef zeroext %0) #3 {
  %2 = alloca i16, align 2
  %3 = alloca i32, align 4
  %4 = alloca i32, align 4
  %5 = alloca double, align 8
  store i16 %0, ptr %2, align 2
  call void @llvm.lifetime.start.p0(i64 4, ptr %3) #5
  call void @llvm.lifetime.start.p0(i64 4, ptr %4) #5
  call void @llvm.lifetime.start.p0(i64 8, ptr %5) #5
  %6 = load i16, ptr %2, align 2
  %7 = zext i16 %6 to i32
  %8 = and i32 %7, 15
  store i32 %8, ptr %3, align 4
  %9 = load i16, ptr %2, align 2
  %10 = zext i16 %9 to i32
  %11 = ashr i32 %10, 4
  %12 = sitofp i32 %11 to double
  %13 = fmul double %12, 0x3F64000000000000
  store double %13, ptr %5, align 8
  store i32 0, ptr %4, align 4
  br label %14

14:                                               ; preds = %21, %1
  %15 = load i32, ptr %4, align 4
  %16 = load i32, ptr %3, align 4
  %17 = icmp slt i32 %15, %16
  br i1 %17, label %18, label %24

18:                                               ; preds = %14
  %19 = load double, ptr %5, align 8
  %20 = fmul double %19, 1.000000e+01
  store double %20, ptr %5, align 8
  br label %21

21:                                               ; preds = %18
  %22 = load i32, ptr %4, align 4
  %23 = add i32 %22, 1
  store i32 %23, ptr %4, align 4
  br label %14, !llvm.loop !23

24:                                               ; preds = %14
  %25 = load double, ptr %5, align 8
  %26 = fptoui double %25 to i32
  call void @llvm.lifetime.end.p0(i64 8, ptr %5) #5
  call void @llvm.lifetime.end.p0(i64 4, ptr %4) #5
  call void @llvm.lifetime.end.p0(i64 4, ptr %3) #5
  ret i32 %26
}

; Function Attrs: null_pointer_is_valid sspstrong uwtable
define internal void @dissect_uftp_congctrl(ptr noundef %0, ptr noundef %1, ptr noundef %2) #0 {
  %4 = alloca ptr, align 8
  %5 = alloca ptr, align 8
  %6 = alloca ptr, align 8
  %7 = alloca ptr, align 8
  %8 = alloca ptr, align 8
  %9 = alloca ptr, align 8
  %10 = alloca ptr, align 8
  %11 = alloca ptr, align 8
  %12 = alloca ptr, align 8
  %13 = alloca i32, align 4
  %14 = alloca i32, align 4
  %15 = alloca i32, align 4
  %16 = alloca i8, align 1
  %17 = alloca i8, align 1
  %18 = alloca i32, align 4
  %19 = alloca i32, align 4
  %20 = alloca double, align 8
  store ptr %0, ptr %4, align 8
  store ptr %1, ptr %5, align 8
  store ptr %2, ptr %6, align 8
  call void @llvm.lifetime.start.p0(i64 8, ptr %7) #5
  store ptr null, ptr %7, align 8
  call void @llvm.lifetime.start.p0(i64 8, ptr %8) #5
  store ptr null, ptr %8, align 8
  call void @llvm.lifetime.start.p0(i64 8, ptr %9) #5
  store ptr null, ptr %9, align 8
  call void @llvm.lifetime.start.p0(i64 8, ptr %10) #5
  store ptr null, ptr %10, align 8
  call void @llvm.lifetime.start.p0(i64 8, ptr %11) #5
  store ptr null, ptr %11, align 8
  call void @llvm.lifetime.start.p0(i64 8, ptr %12) #5
  store ptr null, ptr %12, align 8
  call void @llvm.lifetime.start.p0(i64 4, ptr %13) #5
  store i32 0, ptr %13, align 4
  call void @llvm.lifetime.start.p0(i64 4, ptr %14) #5
  call void @llvm.lifetime.start.p0(i64 4, ptr %15) #5
  call void @llvm.lifetime.start.p0(i64 1, ptr %16) #5
  call void @llvm.lifetime.start.p0(i64 1, ptr %17) #5
  %21 = load ptr, ptr %4, align 8
  %22 = call i32 @tvb_reported_length(ptr noundef %21)
  %23 = icmp ult i32 %22, 16
  br i1 %23, label %24, label %32

24:                                               ; preds = %3
  %25 = load ptr, ptr %6, align 8
  %26 = load ptr, ptr %5, align 8
  %27 = load ptr, ptr %4, align 8
  %28 = load i32, ptr %13, align 4
  %29 = load ptr, ptr %4, align 8
  %30 = call i32 @tvb_reported_length(ptr noundef %29)
  %31 = call ptr (ptr, ptr, ptr, ptr, i32, i32, ptr, ...) @proto_tree_add_expert_format(ptr noundef %25, ptr noundef %26, ptr noundef @ei_uftp_length_invalid, ptr noundef %27, i32 noundef %28, i32 noundef -1, ptr noundef @.str.427, i32 noundef %30)
  store i32 1, ptr %18, align 4
  br label %193

32:                                               ; preds = %3
  %33 = load ptr, ptr %4, align 8
  %34 = call zeroext i8 @tvb_get_uint8(ptr noundef %33, i32 noundef 1)
  %35 = zext i8 %34 to i32
  %36 = mul i32 %35, 4
  store i32 %36, ptr %14, align 4
  %37 = load ptr, ptr %4, align 8
  %38 = call i32 @tvb_reported_length(ptr noundef %37)
  %39 = load i32, ptr %14, align 4
  %40 = icmp slt i32 %38, %39
  br i1 %40, label %44, label %41

41:                                               ; preds = %32
  %42 = load i32, ptr %14, align 4
  %43 = icmp slt i32 %42, 16
  br i1 %43, label %44, label %53

44:                                               ; preds = %41, %32
  %45 = load ptr, ptr %6, align 8
  %46 = load ptr, ptr %5, align 8
  %47 = load ptr, ptr %4, align 8
  %48 = load i32, ptr %13, align 4
  %49 = load ptr, ptr %4, align 8
  %50 = call i32 @tvb_reported_length(ptr noundef %49)
  %51 = load i32, ptr %14, align 4
  %52 = call ptr (ptr, ptr, ptr, ptr, i32, i32, ptr, ...) @proto_tree_add_expert_format(ptr noundef %45, ptr noundef %46, ptr noundef @ei_uftp_length_invalid, ptr noundef %47, i32 noundef %48, i32 noundef -1, ptr noundef @.str.428, i32 noundef %50, i32 noundef %51)
  store i32 1, ptr %18, align 4
  br label %193

53:                                               ; preds = %41
  %54 = load ptr, ptr %4, align 8
  %55 = call zeroext i16 @tvb_get_ntohs(ptr noundef %54, i32 noundef 6)
  %56 = call i32 @unquantize_rate(i16 noundef zeroext %55)
  store i32 %56, ptr %15, align 4
  %57 = load ptr, ptr %6, align 8
  %58 = load i32, ptr @hf_uftp_congctrl, align 4
  %59 = load ptr, ptr %4, align 8
  %60 = load i32, ptr %13, align 4
  %61 = call ptr @proto_tree_add_item(ptr noundef %57, i32 noundef %58, ptr noundef %59, i32 noundef %60, i32 noundef -1, i32 noundef 0)
  store ptr %61, ptr %7, align 8
  %62 = load ptr, ptr %7, align 8
  %63 = load i32, ptr @ett_uftp_congctrl, align 4
  %64 = call ptr @proto_item_add_subtree(ptr noundef %62, i32 noundef %63)
  store ptr %64, ptr %10, align 8
  %65 = load ptr, ptr %10, align 8
  %66 = load i32, ptr @hf_uftp_congctrl_func, align 4
  %67 = load ptr, ptr %4, align 8
  %68 = load i32, ptr %13, align 4
  %69 = call ptr @proto_tree_add_item(ptr noundef %65, i32 noundef %66, ptr noundef %67, i32 noundef %68, i32 noundef 1, i32 noundef 0)
  %70 = load i32, ptr %13, align 4
  %71 = add i32 %70, 1
  store i32 %71, ptr %13, align 4
  %72 = load ptr, ptr %10, align 8
  %73 = load i32, ptr @hf_uftp_congctrl_hlen, align 4
  %74 = load ptr, ptr %4, align 8
  %75 = load i32, ptr %13, align 4
  %76 = load i32, ptr %14, align 4
  %77 = load i32, ptr %14, align 4
  %78 = load i32, ptr %14, align 4
  %79 = sdiv i32 %78, 4
  %80 = call ptr (ptr, i32, ptr, i32, i32, i32, ptr, ...) @proto_tree_add_uint_format_value(ptr noundef %72, i32 noundef %73, ptr noundef %74, i32 noundef %75, i32 noundef 1, i32 noundef %76, ptr noundef @.str.429, i32 noundef %77, i32 noundef %79)
  %81 = load i32, ptr %13, align 4
  %82 = add i32 %81, 1
  store i32 %82, ptr %13, align 4
  %83 = load ptr, ptr %10, align 8
  %84 = load i32, ptr @hf_uftp_congctrl_reserved, align 4
  %85 = load ptr, ptr %4, align 8
  %86 = load i32, ptr %13, align 4
  %87 = call ptr @proto_tree_add_item(ptr noundef %83, i32 noundef %84, ptr noundef %85, i32 noundef %86, i32 noundef 2, i32 noundef 0)
  %88 = load i32, ptr %13, align 4
  %89 = add i32 %88, 2
  store i32 %89, ptr %13, align 4
  %90 = load ptr, ptr %10, align 8
  %91 = load i32, ptr @hf_uftp_congctrl_cc_seq, align 4
  %92 = load ptr, ptr %4, align 8
  %93 = load i32, ptr %13, align 4
  %94 = call ptr @proto_tree_add_item(ptr noundef %90, i32 noundef %91, ptr noundef %92, i32 noundef %93, i32 noundef 2, i32 noundef 0)
  %95 = load i32, ptr %13, align 4
  %96 = add i32 %95, 2
  store i32 %96, ptr %13, align 4
  %97 = load ptr, ptr %10, align 8
  %98 = load i32, ptr @hf_uftp_congctrl_cc_rate, align 4
  %99 = load ptr, ptr %4, align 8
  %100 = load i32, ptr %13, align 4
  %101 = load i32, ptr %15, align 4
  %102 = call ptr @proto_tree_add_uint(ptr noundef %97, i32 noundef %98, ptr noundef %99, i32 noundef %100, i32 noundef 2, i32 noundef %101)
  %103 = load i32, ptr %13, align 4
  %104 = add i32 %103, 2
  store i32 %104, ptr %13, align 4
  %105 = load ptr, ptr %10, align 8
  %106 = load i32, ptr @hf_uftp_congctrl_tstamp, align 4
  %107 = load ptr, ptr %4, align 8
  %108 = load i32, ptr %13, align 4
  %109 = call ptr @proto_tree_add_item(ptr noundef %105, i32 noundef %106, ptr noundef %107, i32 noundef %108, i32 noundef 8, i32 noundef 16)
  %110 = load ptr, ptr %4, align 8
  %111 = call i32 @tvb_reported_length(ptr noundef %110)
  %112 = load i32, ptr %14, align 4
  %113 = sub i32 %111, %112
  %114 = udiv i32 %113, 8
  %115 = trunc i32 %114 to i8
  store i8 %115, ptr %16, align 1
  %116 = load i32, ptr %14, align 4
  store i32 %116, ptr %13, align 4
  %117 = load i8, ptr %16, align 1
  %118 = zext i8 %117 to i32
  %119 = icmp sgt i32 %118, 0
  br i1 %119, label %120, label %132

120:                                              ; preds = %53
  %121 = load ptr, ptr %10, align 8
  %122 = load i32, ptr @hf_uftp_congctrl_cclist, align 4
  %123 = load ptr, ptr %4, align 8
  %124 = load i32, ptr %13, align 4
  %125 = load i8, ptr %16, align 1
  %126 = zext i8 %125 to i32
  %127 = mul i32 %126, 8
  %128 = call ptr @proto_tree_add_item(ptr noundef %121, i32 noundef %122, ptr noundef %123, i32 noundef %124, i32 noundef %127, i32 noundef 0)
  store ptr %128, ptr %8, align 8
  %129 = load ptr, ptr %8, align 8
  %130 = load i32, ptr @ett_uftp_congctrl_cclist, align 4
  %131 = call ptr @proto_item_add_subtree(ptr noundef %129, i32 noundef %130)
  store ptr %131, ptr %11, align 8
  br label %132

132:                                              ; preds = %120, %53
  store i8 0, ptr %17, align 1
  br label %133

133:                                              ; preds = %189, %132
  %134 = load i8, ptr %17, align 1
  %135 = zext i8 %134 to i32
  %136 = load i8, ptr %16, align 1
  %137 = zext i8 %136 to i32
  %138 = icmp slt i32 %135, %137
  br i1 %138, label %139, label %192

139:                                              ; preds = %133
  call void @llvm.lifetime.start.p0(i64 4, ptr %19) #5
  call void @llvm.lifetime.start.p0(i64 8, ptr %20) #5
  %140 = load ptr, ptr %4, align 8
  %141 = load i32, ptr %13, align 4
  %142 = add i32 %141, 5
  %143 = call zeroext i8 @tvb_get_uint8(ptr noundef %140, i32 noundef %142)
  %144 = call double @unquantize_grtt(i8 noundef zeroext %143)
  store double %144, ptr %20, align 8
  %145 = load ptr, ptr %4, align 8
  %146 = load i32, ptr %13, align 4
  %147 = add i32 %146, 6
  %148 = call zeroext i16 @tvb_get_ntohs(ptr noundef %145, i32 noundef %147)
  %149 = call i32 @unquantize_rate(i16 noundef zeroext %148)
  store i32 %149, ptr %19, align 4
  %150 = load ptr, ptr %11, align 8
  %151 = load i32, ptr @hf_uftp_congctrl_item, align 4
  %152 = load ptr, ptr %4, align 8
  %153 = load i32, ptr %13, align 4
  %154 = call ptr @proto_tree_add_item(ptr noundef %150, i32 noundef %151, ptr noundef %152, i32 noundef %153, i32 noundef 8, i32 noundef 0)
  store ptr %154, ptr %9, align 8
  %155 = load ptr, ptr %9, align 8
  %156 = load i32, ptr @ett_uftp_congctrl_item, align 4
  %157 = call ptr @proto_item_add_subtree(ptr noundef %155, i32 noundef %156)
  store ptr %157, ptr %12, align 8
  %158 = load ptr, ptr %12, align 8
  %159 = load i32, ptr @hf_uftp_congctrl_item_destid, align 4
  %160 = load ptr, ptr %4, align 8
  %161 = load i32, ptr %13, align 4
  %162 = call ptr @proto_tree_add_item(ptr noundef %158, i32 noundef %159, ptr noundef %160, i32 noundef %161, i32 noundef 4, i32 noundef 0)
  %163 = load i32, ptr %13, align 4
  %164 = add i32 %163, 4
  store i32 %164, ptr %13, align 4
  %165 = load ptr, ptr %12, align 8
  %166 = load ptr, ptr %4, align 8
  %167 = load i32, ptr %13, align 4
  %168 = load i32, ptr @hf_uftp_congctrl_item_flags, align 4
  %169 = load i32, ptr @ett_uftp_congctrl_item_flags, align 4
  %170 = call ptr @proto_tree_add_bitmask(ptr noundef %165, ptr noundef %166, i32 noundef %167, i32 noundef %168, i32 noundef %169, ptr noundef @cc_item_flags, i32 noundef 0)
  %171 = load i32, ptr %13, align 4
  %172 = add i32 %171, 1
  store i32 %172, ptr %13, align 4
  %173 = load ptr, ptr %12, align 8
  %174 = load i32, ptr @hf_uftp_congctrl_item_rtt, align 4
  %175 = load ptr, ptr %4, align 8
  %176 = load i32, ptr %13, align 4
  %177 = load double, ptr %20, align 8
  %178 = call ptr @proto_tree_add_double(ptr noundef %173, i32 noundef %174, ptr noundef %175, i32 noundef %176, i32 noundef 1, double noundef %177)
  %179 = load i32, ptr %13, align 4
  %180 = add i32 %179, 1
  store i32 %180, ptr %13, align 4
  %181 = load ptr, ptr %12, align 8
  %182 = load i32, ptr @hf_uftp_congctrl_item_rate, align 4
  %183 = load ptr, ptr %4, align 8
  %184 = load i32, ptr %13, align 4
  %185 = load i32, ptr %19, align 4
  %186 = call ptr @proto_tree_add_uint(ptr noundef %181, i32 noundef %182, ptr noundef %183, i32 noundef %184, i32 noundef 2, i32 noundef %185)
  %187 = load i32, ptr %13, align 4
  %188 = add i32 %187, 2
  store i32 %188, ptr %13, align 4
  call void @llvm.lifetime.end.p0(i64 8, ptr %20) #5
  call void @llvm.lifetime.end.p0(i64 4, ptr %19) #5
  br label %189

189:                                              ; preds = %139
  %190 = load i8, ptr %17, align 1
  %191 = add i8 %190, 1
  store i8 %191, ptr %17, align 1
  br label %133, !llvm.loop !21

192:                                              ; preds = %133
  store i32 0, ptr %18, align 4
  br label %193

193:                                              ; preds = %192, %44, %24
  call void @llvm.lifetime.end.p0(i64 1, ptr %17) #5
  call void @llvm.lifetime.end.p0(i64 1, ptr %16) #5
  call void @llvm.lifetime.end.p0(i64 4, ptr %15) #5
  call void @llvm.lifetime.end.p0(i64 4, ptr %14) #5
  call void @llvm.lifetime.end.p0(i64 4, ptr %13) #5
  call void @llvm.lifetime.end.p0(i64 8, ptr %12) #5
  call void @llvm.lifetime.end.p0(i64 8, ptr %11) #5
  call void @llvm.lifetime.end.p0(i64 8, ptr %10) #5
  call void @llvm.lifetime.end.p0(i64 8, ptr %9) #5
  call void @llvm.lifetime.end.p0(i64 8, ptr %8) #5
  call void @llvm.lifetime.end.p0(i64 8, ptr %7) #5
  %194 = load i32, ptr %18, align 4
  switch i32 %194, label %196 [
    i32 0, label %195
    i32 1, label %195
  ]

195:                                              ; preds = %193, %193
  ret void

196:                                              ; preds = %193
  unreachable
}