; Function Attrs: null_pointer_is_valid sspstrong uwtable
define internal fastcc void @dissect_uftp_congctrl(ptr noundef %0, ptr noundef %1, ptr noundef %2) unnamed_addr #0 {
  %4 = tail call i32 @tvb_reported_length(ptr noundef %0)
  %5 = icmp ult i32 %4, 16
  br i1 %5, label %6, label %9

6:                                                ; preds = %3
  %7 = tail call i32 @tvb_reported_length(ptr noundef %0)
  %8 = tail call ptr (ptr, ptr, ptr, ptr, i32, i32, ptr, ...) @proto_tree_add_expert_format(ptr noundef %2, ptr noundef %1, ptr noundef nonnull @ei_uftp_length_invalid, ptr noundef %0, i32 noundef 0, i32 noundef -1, ptr noundef nonnull @.str.427, i32 noundef %7)
  br label %.loopexit

9:                                                ; preds = %3
  %10 = tail call zeroext i8 @tvb_get_uint8(ptr noundef %0, i32 noundef 1)
  %11 = zext i8 %10 to i32
  %12 = shl nuw nsw i32 %11, 2
  %13 = tail call i32 @tvb_reported_length(ptr noundef %0)
  %14 = icmp slt i32 %13, %12
  %15 = icmp ult i8 %10, 4
  %or.cond = select i1 %14, i1 true, i1 %15
  br i1 %or.cond, label %16, label %19

16:                                               ; preds = %9
  %17 = tail call i32 @tvb_reported_length(ptr noundef %0)
  %18 = tail call ptr (ptr, ptr, ptr, ptr, i32, i32, ptr, ...) @proto_tree_add_expert_format(ptr noundef %2, ptr noundef %1, ptr noundef nonnull @ei_uftp_length_invalid, ptr noundef %0, i32 noundef 0, i32 noundef -1, ptr noundef nonnull @.str.428, i32 noundef %17, i32 noundef %12)
  br label %.loopexit

19:                                               ; preds = %9
  %20 = tail call zeroext i16 @tvb_get_ntohs(ptr noundef %0, i32 noundef 6)
  %21 = zext i16 %20 to i32
  %22 = and i32 %21, 15
  %23 = lshr i32 %21, 4
  %24 = uitofp nneg i32 %23 to double
  %25 = fmul double %24, 0x3F64000000000000
  %.not.i = icmp eq i32 %22, 0
  br i1 %.not.i, label %unquantize_rate.exit, label %.lr.ph.i

.lr.ph.i:                                         ; preds = %19, %.lr.ph.i
  %.08.i = phi double [ %26, %.lr.ph.i ], [ %25, %19 ]
  %.067.i = phi i32 [ %27, %.lr.ph.i ], [ 0, %19 ]
  %26 = fmul double %.08.i, 1.000000e+01
  %27 = add nuw nsw i32 %.067.i, 1
  %exitcond.not.i = icmp eq i32 %27, %22
  br i1 %exitcond.not.i, label %unquantize_rate.exit, label %.lr.ph.i, !llvm.loop !14

unquantize_rate.exit:                             ; preds = %.lr.ph.i, %19
  %.0.lcssa.i = phi double [ %25, %19 ], [ %26, %.lr.ph.i ]
  %28 = fptoui double %.0.lcssa.i to i32
  %29 = load i32, ptr @hf_uftp_congctrl, align 4
  %30 = tail call ptr @proto_tree_add_item(ptr noundef %2, i32 noundef %29, ptr noundef %0, i32 noundef 0, i32 noundef -1, i32 noundef 0)
  %31 = load i32, ptr @ett_uftp_congctrl, align 4
  %32 = tail call ptr @proto_item_add_subtree(ptr noundef %30, i32 noundef %31)
  %33 = load i32, ptr @hf_uftp_congctrl_func, align 4
  %34 = tail call ptr @proto_tree_add_item(ptr noundef %32, i32 noundef %33, ptr noundef %0, i32 noundef 0, i32 noundef 1, i32 noundef 0)
  %35 = load i32, ptr @hf_uftp_congctrl_hlen, align 4
  %36 = tail call ptr (ptr, i32, ptr, i32, i32, i32, ptr, ...) @proto_tree_add_uint_format_value(ptr noundef %32, i32 noundef %35, ptr noundef %0, i32 noundef 1, i32 noundef 1, i32 noundef %12, ptr noundef nonnull @.str.429, i32 noundef %12, i32 noundef %11)
  %37 = load i32, ptr @hf_uftp_congctrl_reserved, align 4
  %38 = tail call ptr @proto_tree_add_item(ptr noundef %32, i32 noundef %37, ptr noundef %0, i32 noundef 2, i32 noundef 2, i32 noundef 0)
  %39 = load i32, ptr @hf_uftp_congctrl_cc_seq, align 4
  %40 = tail call ptr @proto_tree_add_item(ptr noundef %32, i32 noundef %39, ptr noundef %0, i32 noundef 4, i32 noundef 2, i32 noundef 0)
  %41 = load i32, ptr @hf_uftp_congctrl_cc_rate, align 4
  %42 = tail call ptr @proto_tree_add_uint(ptr noundef %32, i32 noundef %41, ptr noundef %0, i32 noundef 6, i32 noundef 2, i32 noundef %28)
  %43 = load i32, ptr @hf_uftp_congctrl_tstamp, align 4
  %44 = tail call ptr @proto_tree_add_item(ptr noundef %32, i32 noundef %43, ptr noundef %0, i32 noundef 8, i32 noundef 8, i32 noundef 16)
  %45 = tail call i32 @tvb_reported_length(ptr noundef %0)
  %46 = sub i32 %45, %12
  %47 = lshr i32 %46, 3
  %48 = and i32 %47, 255
  %.not = icmp eq i32 %48, 0
  br i1 %.not, label %.loopexit, label %.lr.ph.preheader

.lr.ph.preheader:                                 ; preds = %unquantize_rate.exit
  %49 = load i32, ptr @hf_uftp_congctrl_cclist, align 4
  %50 = shl nuw nsw i32 %48, 3
  %51 = tail call ptr @proto_tree_add_item(ptr noundef %32, i32 noundef %49, ptr noundef %0, i32 noundef %12, i32 noundef %50, i32 noundef 0)
  %52 = load i32, ptr @ett_uftp_congctrl_cclist, align 4
  %53 = tail call ptr @proto_item_add_subtree(ptr noundef %51, i32 noundef %52)
  br label %.lr.ph

.lr.ph:                                           ; preds = %.lr.ph.preheader, %unquantize_rate.exit96
  %indvars.iv = phi i32 [ 0, %.lr.ph.preheader ], [ %indvars.iv.next, %unquantize_rate.exit96 ]
  %.08798 = phi i32 [ %12, %.lr.ph.preheader ], [ %93, %unquantize_rate.exit96 ]
  %54 = add nuw nsw i32 %.08798, 5
  %55 = tail call zeroext i8 @tvb_get_uint8(ptr noundef %0, i32 noundef %54)
  %56 = zext i8 %55 to i32
  %57 = icmp ult i8 %55, 32
  br i1 %57, label %58, label %62

58:                                               ; preds = %.lr.ph
  %59 = add nuw nsw i32 %56, 1
  %60 = uitofp nneg i32 %59 to double
  %61 = fmul double %60, 0x3EB0C6F7A0B5ED8D
  br label %unquantize_grtt.exit

62:                                               ; preds = %.lr.ph
  %63 = xor i32 %56, 255
  %64 = uitofp nneg i32 %63 to double
  %65 = fdiv double %64, 1.300000e+01
  %66 = tail call double @exp(double noundef %65) #4
  %67 = fdiv double 1.000000e+03, %66
  br label %unquantize_grtt.exit

unquantize_grtt.exit:                             ; preds = %58, %62
  %68 = phi double [ %61, %58 ], [ %67, %62 ]
  %69 = add nuw nsw i32 %.08798, 6
  %70 = tail call zeroext i16 @tvb_get_ntohs(ptr noundef %0, i32 noundef %69)
  %71 = zext i16 %70 to i32
  %72 = and i32 %71, 15
  %73 = lshr i32 %71, 4
  %74 = uitofp nneg i32 %73 to double
  %75 = fmul double %74, 0x3F64000000000000
  %.not.i90 = icmp eq i32 %72, 0
  br i1 %.not.i90, label %unquantize_rate.exit96, label %.lr.ph.i91

.lr.ph.i91:                                       ; preds = %unquantize_grtt.exit, %.lr.ph.i91
  %.08.i92 = phi double [ %76, %.lr.ph.i91 ], [ %75, %unquantize_grtt.exit ]
  %.067.i93 = phi i32 [ %77, %.lr.ph.i91 ], [ 0, %unquantize_grtt.exit ]
  %76 = fmul double %.08.i92, 1.000000e+01
  %77 = add nuw nsw i32 %.067.i93, 1
  %exitcond.not.i94 = icmp eq i32 %77, %72
  br i1 %exitcond.not.i94, label %unquantize_rate.exit96, label %.lr.ph.i91, !llvm.loop !14

unquantize_rate.exit96:                           ; preds = %.lr.ph.i91, %unquantize_grtt.exit
  %.0.lcssa.i95 = phi double [ %75, %unquantize_grtt.exit ], [ %76, %.lr.ph.i91 ]
  %78 = fptoui double %.0.lcssa.i95 to i32
  %79 = load i32, ptr @hf_uftp_congctrl_item, align 4
  %80 = tail call ptr @proto_tree_add_item(ptr noundef %53, i32 noundef %79, ptr noundef %0, i32 noundef %.08798, i32 noundef 8, i32 noundef 0)
  %81 = load i32, ptr @ett_uftp_congctrl_item, align 4
  %82 = tail call ptr @proto_item_add_subtree(ptr noundef %80, i32 noundef %81)
  %83 = load i32, ptr @hf_uftp_congctrl_item_destid, align 4
  %84 = tail call ptr @proto_tree_add_item(ptr noundef %82, i32 noundef %83, ptr noundef %0, i32 noundef %.08798, i32 noundef 4, i32 noundef 0)
  %85 = add nuw nsw i32 %.08798, 4
  %86 = load i32, ptr @hf_uftp_congctrl_item_flags, align 4
  %87 = load i32, ptr @ett_uftp_congctrl_item_flags, align 4
  %88 = tail call ptr @proto_tree_add_bitmask(ptr noundef %82, ptr noundef %0, i32 noundef %85, i32 noundef %86, i32 noundef %87, ptr noundef nonnull @cc_item_flags, i32 noundef 0)
  %89 = load i32, ptr @hf_uftp_congctrl_item_rtt, align 4
  %90 = tail call ptr @proto_tree_add_double(ptr noundef %82, i32 noundef %89, ptr noundef %0, i32 noundef %54, i32 noundef 1, double noundef %68)
  %91 = load i32, ptr @hf_uftp_congctrl_item_rate, align 4
  %92 = tail call ptr @proto_tree_add_uint(ptr noundef %82, i32 noundef %91, ptr noundef %0, i32 noundef %69, i32 noundef 2, i32 noundef %78)
  %93 = add nuw nsw i32 %.08798, 8
  %indvars.iv.next = add nuw nsw i32 %indvars.iv, 1
  %exitcond.not = icmp eq i32 %indvars.iv.next, %48
  br i1 %exitcond.not, label %.loopexit, label %.lr.ph, !llvm.loop !18

.loopexit:                                        ; preds = %unquantize_rate.exit96, %unquantize_rate.exit, %16, %6
  ret void
}